target datalayout = "e-m:e-p270:32:32-p271:32:32-p272:64:64-i64:64-i128:128-f80:128-n8:16:32:64-S128"
target triple = "x86_64-pc-linux-gnu"

%struct.st__table = type { ptr, ptr, i32, i32, i32, i32, double, ptr }

; Function Attrs: nounwind uwtable
define ptr @st__init_table_with_params(ptr noundef %0, ptr noundef %1, i32 noundef %2, i32 noundef %3, double noundef %4, i32 noundef %5) #0 {
  %7 = alloca ptr, align 8
  %8 = alloca ptr, align 8
  %9 = alloca ptr, align 8
  %10 = alloca i32, align 4
  %11 = alloca i32, align 4
  %12 = alloca double, align 8
  %13 = alloca i32, align 4
  %14 = alloca i32, align 4
  %15 = alloca ptr, align 8
  %16 = alloca i32, align 4
  store ptr %0, ptr %8, align 8, !tbaa !3
  store ptr %1, ptr %9, align 8, !tbaa !3
  store i32 %2, ptr %10, align 4, !tbaa !7
  store i32 %3, ptr %11, align 4, !tbaa !7
  store double %4, ptr %12, align 8, !tbaa !9
  store i32 %5, ptr %13, align 4, !tbaa !7
  call void @llvm.lifetime.start.p0(i64 4, ptr %14) #6
  call void @llvm.lifetime.start.p0(i64 8, ptr %15) #6
  %17 = call noalias ptr @malloc(i64 noundef 48) #7
  store ptr %17, ptr %15, align 8, !tbaa !11
  %18 = load ptr, ptr %15, align 8, !tbaa !11
  %19 = icmp eq ptr %18, null
  br i1 %19, label %20, label %21

20:                                               ; preds = %6
  store ptr null, ptr %7, align 8
  store i32 1, ptr %16, align 4
  br label %80

21:                                               ; preds = %6
  %22 = load ptr, ptr %8, align 8, !tbaa !3
  %23 = load ptr, ptr %15, align 8, !tbaa !11
  %24 = getelementptr inbounds nuw %struct.st__table, ptr %23, i32 0, i32 0
  store ptr %22, ptr %24, align 8, !tbaa !13
  %25 = load ptr, ptr %9, align 8, !tbaa !3
  %26 = load ptr, ptr %15, align 8, !tbaa !11
  %27 = getelementptr inbounds nuw %struct.st__table, ptr %26, i32 0, i32 1
  store ptr %25, ptr %27, align 8, !tbaa !16
  %28 = load ptr, ptr %15, align 8, !tbaa !11
  %29 = getelementptr inbounds nuw %struct.st__table, ptr %28, i32 0, i32 3
  store i32 0, ptr %29, align 4, !tbaa !17
  %30 = load i32, ptr %11, align 4, !tbaa !7
  %31 = load ptr, ptr %15, align 8, !tbaa !11
  %32 = getelementptr inbounds nuw %struct.st__table, ptr %31, i32 0, i32 4
  store i32 %30, ptr %32, align 8, !tbaa !18
  %33 = load double, ptr %12, align 8, !tbaa !9
  %34 = load ptr, ptr %15, align 8, !tbaa !11
  %35 = getelementptr inbounds nuw %struct.st__table, ptr %34, i32 0, i32 6
  store double %33, ptr %35, align 8, !tbaa !19
  %36 = load i32, ptr %13, align 4, !tbaa !7
  %37 = load ptr, ptr %15, align 8, !tbaa !11
  %38 = getelementptr inbounds nuw %struct.st__table, ptr %37, i32 0, i32 5
  store i32 %36, ptr %38, align 4, !tbaa !20
  %39 = load i32, ptr %10, align 4, !tbaa !7
  %40 = icmp sle i32 %39, 0
  br i1 %40, label %41, label %42

41:                                               ; preds = %21
  store i32 1, ptr %10, align 4, !tbaa !7
  br label %42

42:                                               ; preds = %41, %21
  %43 = load i32, ptr %10, align 4, !tbaa !7
  %44 = load ptr, ptr %15, align 8, !tbaa !11
  %45 = getelementptr inbounds nuw %struct.st__table, ptr %44, i32 0, i32 2
  store i32 %43, ptr %45, align 8, !tbaa !21
  %46 = load i32, ptr %10, align 4, !tbaa !7
  %47 = sext i32 %46 to i64
  %48 = mul i64 8, %47
  %49 = call noalias ptr @malloc(i64 noundef %48) #7
  %50 = load ptr, ptr %15, align 8, !tbaa !11
  %51 = getelementptr inbounds nuw %struct.st__table, ptr %50, i32 0, i32 7
  store ptr %49, ptr %51, align 8, !tbaa !22
  %52 = load ptr, ptr %15, align 8, !tbaa !11
  %53 = getelementptr inbounds nuw %struct.st__table, ptr %52, i32 0, i32 7
  %54 = load ptr, ptr %53, align 8, !tbaa !22
  %55 = icmp eq ptr %54, null
  br i1 %55, label %56, label %63

56:                                               ; preds = %42
  %57 = load ptr, ptr %15, align 8, !tbaa !11
  %58 = icmp ne ptr %57, null
  br i1 %58, label %59, label %61

59:                                               ; preds = %56
  %60 = load ptr, ptr %15, align 8, !tbaa !11
  call void @free(ptr noundef %60) #6
  store ptr null, ptr %15, align 8, !tbaa !11
  br label %62

61:                                               ; preds = %56
  br label %62

62:                                               ; preds = %61, %59
  store ptr null, ptr %7, align 8
  store i32 1, ptr %16, align 4
  br label %80

63:                                               ; preds = %42
  store i32 0, ptr %14, align 4, !tbaa !7
  br label %64

64:                                               ; preds = %75, %63
  %65 = load i32, ptr %14, align 4, !tbaa !7
  %66 = load i32, ptr %10, align 4, !tbaa !7
  %67 = icmp slt i32 %65, %66
  br i1 %67, label %68, label %78

68:                                               ; preds = %64
  %69 = load ptr, ptr %15, align 8, !tbaa !11
  %70 = getelementptr inbounds nuw %struct.st__table, ptr %69, i32 0, i32 7
  %71 = load ptr, ptr %70, align 8, !tbaa !22
  %72 = load i32, ptr %14, align 4, !tbaa !7
  %73 = sext i32 %72 to i64
  %74 = getelementptr inbounds ptr, ptr %71, i64 %73
  store ptr null, ptr %74, align 8, !tbaa !23
  br label %75

75:                                               ; preds = %68
  %76 = load i32, ptr %14, align 4, !tbaa !7
  %77 = add nsw i32 %76, 1
  store i32 %77, ptr %14, align 4, !tbaa !7
  br label %64, !llvm.loop !25

78:                                               ; preds = %64
  %79 = load ptr, ptr %15, align 8, !tbaa !11
  store ptr %79, ptr %7, align 8
  store i32 1, ptr %16, align 4
  br label %80

80:                                               ; preds = %78, %62, %20
  call void @llvm.lifetime.end.p0(i64 8, ptr %15) #6
  call void @llvm.lifetime.end.p0(i64 4, ptr %14) #6
  %81 = load ptr, ptr %7, align 8
  ret ptr %81
}