; Function Attrs: mustprogress nounwind willreturn memory(readwrite, argmem: none) uwtable
define noalias noundef ptr @st__init_table_with_params(ptr noundef %0, ptr noundef %1, i32 noundef %2, i32 noundef %3, double noundef %4, i32 noundef %5) local_unnamed_addr #0 {
  %7 = tail call noalias dereferenceable_or_null(48) ptr @malloc(i64 noundef 48) #13
  %8 = icmp eq ptr %7, null
  br i1 %8, label %.loopexit, label %9

9:                                                ; preds = %6
  store ptr %0, ptr %7, align 8, !tbaa !3
  %10 = getelementptr inbounds nuw i8, ptr %7, i64 8
  store ptr %1, ptr %10, align 8, !tbaa !11
  %11 = getelementptr inbounds nuw i8, ptr %7, i64 20
  store i32 0, ptr %11, align 4, !tbaa !12
  %12 = getelementptr inbounds nuw i8, ptr %7, i64 24
  store i32 %3, ptr %12, align 8, !tbaa !13
  %13 = getelementptr inbounds nuw i8, ptr %7, i64 32
  store double %4, ptr %13, align 8, !tbaa !14
  %14 = getelementptr inbounds nuw i8, ptr %7, i64 28
  store i32 %5, ptr %14, align 4, !tbaa !15
  %spec.store.select = tail call i32 @llvm.smax.i32(i32 %2, i32 1)
  %15 = getelementptr inbounds nuw i8, ptr %7, i64 16
  store i32 %spec.store.select, ptr %15, align 8, !tbaa !16
  %16 = zext nneg i32 %spec.store.select to i64
  %17 = shl nuw nsw i64 %16, 3
  %calloc = tail call ptr @calloc(i64 1, i64 %17)
  %18 = getelementptr inbounds nuw i8, ptr %7, i64 40
  store ptr %calloc, ptr %18, align 8, !tbaa !17
  %19 = icmp eq ptr %calloc, null
  br i1 %19, label %20, label %.loopexit

20:                                               ; preds = %9
  tail call void @free(ptr noundef nonnull %7) #14
  br label %.loopexit

.loopexit:                                        ; preds = %9, %6, %20
  %.026 = phi ptr [ null, %20 ], [ null, %6 ], [ %7, %9 ]
  ret ptr %.026
}